target datalayout = "e-m:e-p270:32:32-p271:32:32-p272:64:64-i64:64-i128:128-f80:128-n8:16:32:64-S128"
target triple = "x86_64-pc-linux-gnu"

%struct._Node = type { %union.anon.35 }
%union.anon.35 = type { %struct.BagNode }
%struct.BagNode = type { i32, i32, ptr, ptr, i32, %union.anon.37, i32, i32, i32, i32, i32 }
%union.anon.37 = type { %struct.anon.40 }
%struct.anon.40 = type { ptr, ptr }
%struct.anon.36 = type { i32, i32, ptr, ptr }
%struct.ConsAltNode = type { i32, i32, ptr, ptr, ptr }

; Function Attrs: nounwind uwtable
define internal i32 @numbered_ref_check(ptr noundef %0) #0 {
  %2 = alloca i32, align 4
  %3 = alloca ptr, align 8
  %4 = alloca i32, align 4
  %5 = alloca ptr, align 8
  %6 = alloca i32, align 4
  store ptr %0, ptr %3, align 8, !tbaa !47
  call void @llvm.lifetime.start.p0(i64 4, ptr %4) #9
  store i32 0, ptr %4, align 4, !tbaa !4
  %7 = load ptr, ptr %3, align 8, !tbaa !47
  %8 = getelementptr inbounds nuw %struct._Node, ptr %7, i32 0, i32 0
  %9 = getelementptr inbounds nuw %struct.anon.36, ptr %8, i32 0, i32 0
  %10 = load i32, ptr %9, align 8, !tbaa !32
  switch i32 %10, label %109 [
    i32 7, label %11
    i32 8, label %11
    i32 6, label %30
    i32 4, label %38
    i32 5, label %44
    i32 3, label %100
  ]

11:                                               ; preds = %1, %1
  br label %12

12:                                               ; preds = %27, %11
  %13 = load ptr, ptr %3, align 8, !tbaa !47
  %14 = getelementptr inbounds nuw %struct._Node, ptr %13, i32 0, i32 0
  %15 = getelementptr inbounds nuw %struct.ConsAltNode, ptr %14, i32 0, i32 3
  %16 = load ptr, ptr %15, align 8, !tbaa !32
  %17 = call i32 @numbered_ref_check(ptr noundef %16)
  store i32 %17, ptr %4, align 4, !tbaa !4
  br label %18

18:                                               ; preds = %12
  %19 = load i32, ptr %4, align 4, !tbaa !4
  %20 = icmp eq i32 %19, 0
  br i1 %20, label %21, label %27

21:                                               ; preds = %18
  %22 = load ptr, ptr %3, align 8, !tbaa !47
  %23 = getelementptr inbounds nuw %struct._Node, ptr %22, i32 0, i32 0
  %24 = getelementptr inbounds nuw %struct.ConsAltNode, ptr %23, i32 0, i32 4
  %25 = load ptr, ptr %24, align 8, !tbaa !32
  store ptr %25, ptr %3, align 8, !tbaa !47
  %26 = icmp ne ptr %25, null
  br label %27

27:                                               ; preds = %21, %18
  %28 = phi i1 [ false, %18 ], [ %26, %21 ]
  br i1 %28, label %12, label %29, !llvm.loop !175

29:                                               ; preds = %27
  br label %110

30:                                               ; preds = %1
  %31 = load ptr, ptr %3, align 8, !tbaa !47
  %32 = getelementptr inbounds nuw %struct._Node, ptr %31, i32 0, i32 0
  %33 = getelementptr inbounds nuw %struct.anon.36, ptr %32, i32 0, i32 3
  %34 = load ptr, ptr %33, align 8, !tbaa !32
  %35 = icmp eq ptr %34, null
  br i1 %35, label %36, label %37

36:                                               ; preds = %30
  br label %110

37:                                               ; preds = %30
  br label %38

38:                                               ; preds = %1, %37
  %39 = load ptr, ptr %3, align 8, !tbaa !47
  %40 = getelementptr inbounds nuw %struct._Node, ptr %39, i32 0, i32 0
  %41 = getelementptr inbounds nuw %struct.anon.36, ptr %40, i32 0, i32 3
  %42 = load ptr, ptr %41, align 8, !tbaa !32
  %43 = call i32 @numbered_ref_check(ptr noundef %42)
  store i32 %43, ptr %4, align 4, !tbaa !4
  br label %110

44:                                               ; preds = %1
  call void @llvm.lifetime.start.p0(i64 8, ptr %5) #9
  %45 = load ptr, ptr %3, align 8, !tbaa !47
  %46 = getelementptr inbounds nuw %struct._Node, ptr %45, i32 0, i32 0
  store ptr %46, ptr %5, align 8, !tbaa !15
  %47 = load ptr, ptr %3, align 8, !tbaa !47
  %48 = getelementptr inbounds nuw %struct._Node, ptr %47, i32 0, i32 0
  %49 = getelementptr inbounds nuw %struct.anon.36, ptr %48, i32 0, i32 3
  %50 = load ptr, ptr %49, align 8, !tbaa !32
  %51 = call i32 @numbered_ref_check(ptr noundef %50)
  store i32 %51, ptr %4, align 4, !tbaa !4
  %52 = load i32, ptr %4, align 4, !tbaa !4
  %53 = icmp ne i32 %52, 0
  br i1 %53, label %54, label %56

54:                                               ; preds = %44
  %55 = load i32, ptr %4, align 4, !tbaa !4
  store i32 %55, ptr %2, align 4
  store i32 1, ptr %6, align 4
  br label %97

56:                                               ; preds = %44
  %57 = load ptr, ptr %5, align 8, !tbaa !15
  %58 = getelementptr inbounds nuw %struct.BagNode, ptr %57, i32 0, i32 4
  %59 = load i32, ptr %58, align 8, !tbaa !156
  %60 = icmp eq i32 %59, 3
  br i1 %60, label %61, label %96

61:                                               ; preds = %56
  %62 = load ptr, ptr %5, align 8, !tbaa !15
  %63 = getelementptr inbounds nuw %struct.BagNode, ptr %62, i32 0, i32 5
  %64 = getelementptr inbounds nuw %struct.anon.40, ptr %63, i32 0, i32 0
  %65 = load ptr, ptr %64, align 8, !tbaa !32
  %66 = icmp ne ptr %65, null
  br i1 %66, label %67, label %78

67:                                               ; preds = %61
  %68 = load ptr, ptr %5, align 8, !tbaa !15
  %69 = getelementptr inbounds nuw %struct.BagNode, ptr %68, i32 0, i32 5
  %70 = getelementptr inbounds nuw %struct.anon.40, ptr %69, i32 0, i32 0
  %71 = load ptr, ptr %70, align 8, !tbaa !32
  %72 = call i32 @numbered_ref_check(ptr noundef %71)
  store i32 %72, ptr %4, align 4, !tbaa !4
  %73 = load i32, ptr %4, align 4, !tbaa !4
  %74 = icmp ne i32 %73, 0
  br i1 %74, label %75, label %77

75:                                               ; preds = %67
  %76 = load i32, ptr %4, align 4, !tbaa !4
  store i32 %76, ptr %2, align 4
  store i32 1, ptr %6, align 4
  br label %97

77:                                               ; preds = %67
  br label %78

78:                                               ; preds = %77, %61
  %79 = load ptr, ptr %5, align 8, !tbaa !15
  %80 = getelementptr inbounds nuw %struct.BagNode, ptr %79, i32 0, i32 5
  %81 = getelementptr inbounds nuw %struct.anon.40, ptr %80, i32 0, i32 1
  %82 = load ptr, ptr %81, align 8, !tbaa !32
  %83 = icmp ne ptr %82, null
  br i1 %83, label %84, label %95

84:                                               ; preds = %78
  %85 = load ptr, ptr %5, align 8, !tbaa !15
  %86 = getelementptr inbounds nuw %struct.BagNode, ptr %85, i32 0, i32 5
  %87 = getelementptr inbounds nuw %struct.anon.40, ptr %86, i32 0, i32 1
  %88 = load ptr, ptr %87, align 8, !tbaa !32
  %89 = call i32 @numbered_ref_check(ptr noundef %88)
  store i32 %89, ptr %4, align 4, !tbaa !4
  %90 = load i32, ptr %4, align 4, !tbaa !4
  %91 = icmp ne i32 %90, 0
  br i1 %91, label %92, label %94

92:                                               ; preds = %84
  %93 = load i32, ptr %4, align 4, !tbaa !4
  store i32 %93, ptr %2, align 4
  store i32 1, ptr %6, align 4
  br label %97

94:                                               ; preds = %84
  br label %95

95:                                               ; preds = %94, %78
  br label %96

96:                                               ; preds = %95, %56
  store i32 0, ptr %6, align 4
  br label %97

97:                                               ; preds = %96, %92, %75, %54
  call void @llvm.lifetime.end.p0(i64 8, ptr %5) #9
  %98 = load i32, ptr %6, align 4
  switch i32 %98, label %112 [
    i32 0, label %99
  ]

99:                                               ; preds = %97
  br label %110

100:                                              ; preds = %1
  %101 = load ptr, ptr %3, align 8, !tbaa !47
  %102 = getelementptr inbounds nuw %struct._Node, ptr %101, i32 0, i32 0
  %103 = getelementptr inbounds nuw %struct.anon.36, ptr %102, i32 0, i32 1
  %104 = load i32, ptr %103, align 4, !tbaa !32
  %105 = and i32 %104, 32768
  %106 = icmp ne i32 %105, 0
  br i1 %106, label %108, label %107

107:                                              ; preds = %100
  store i32 -209, ptr %2, align 4
  store i32 1, ptr %6, align 4
  br label %112

108:                                              ; preds = %100
  br label %110

109:                                              ; preds = %1
  br label %110

110:                                              ; preds = %109, %108, %99, %38, %36, %29
  %111 = load i32, ptr %4, align 4, !tbaa !4
  store i32 %111, ptr %2, align 4
  store i32 1, ptr %6, align 4
  br label %112

112:                                              ; preds = %110, %107, %97
  call void @llvm.lifetime.end.p0(i64 4, ptr %4) #9
  %113 = load i32, ptr %2, align 4
  ret i32 %113
}